
labirinto:     formato del fichero elf64-x86-64


Desensamblado de la secci贸n .init:

0000000000401000 <_init>:
  401000:	48 83 ec 08          	sub    rsp,0x8
  401004:	48 8b 05 ed 2f 00 00 	mov    rax,QWORD PTR [rip+0x2fed]        # 403ff8 <__gmon_start__>
  40100b:	48 85 c0             	test   rax,rax
  40100e:	74 02                	je     401012 <_init+0x12>
  401010:	ff d0                	call   rax
  401012:	48 83 c4 08          	add    rsp,0x8
  401016:	c3                   	ret    

Desensamblado de la secci贸n .plt:

0000000000401020 <.plt>:
  401020:	ff 35 e2 2f 00 00    	push   QWORD PTR [rip+0x2fe2]        # 404008 <_GLOBAL_OFFSET_TABLE_+0x8>
  401026:	ff 25 e4 2f 00 00    	jmp    QWORD PTR [rip+0x2fe4]        # 404010 <_GLOBAL_OFFSET_TABLE_+0x10>
  40102c:	0f 1f 40 00          	nop    DWORD PTR [rax+0x0]

0000000000401030 <putchar@plt>:
  401030:	ff 25 e2 2f 00 00    	jmp    QWORD PTR [rip+0x2fe2]        # 404018 <putchar@GLIBC_2.2.5>
  401036:	68 00 00 00 00       	push   0x0
  40103b:	e9 e0 ff ff ff       	jmp    401020 <.plt>

0000000000401040 <puts@plt>:
  401040:	ff 25 da 2f 00 00    	jmp    QWORD PTR [rip+0x2fda]        # 404020 <puts@GLIBC_2.2.5>
  401046:	68 01 00 00 00       	push   0x1
  40104b:	e9 d0 ff ff ff       	jmp    401020 <.plt>

0000000000401050 <printf@plt>:
  401050:	ff 25 d2 2f 00 00    	jmp    QWORD PTR [rip+0x2fd2]        # 404028 <printf@GLIBC_2.2.5>
  401056:	68 02 00 00 00       	push   0x2
  40105b:	e9 c0 ff ff ff       	jmp    401020 <.plt>

0000000000401060 <alarm@plt>:
  401060:	ff 25 ca 2f 00 00    	jmp    QWORD PTR [rip+0x2fca]        # 404030 <alarm@GLIBC_2.2.5>
  401066:	68 03 00 00 00       	push   0x3
  40106b:	e9 b0 ff ff ff       	jmp    401020 <.plt>

0000000000401070 <fgets@plt>:
  401070:	ff 25 c2 2f 00 00    	jmp    QWORD PTR [rip+0x2fc2]        # 404038 <fgets@GLIBC_2.2.5>
  401076:	68 04 00 00 00       	push   0x4
  40107b:	e9 a0 ff ff ff       	jmp    401020 <.plt>

0000000000401080 <gets@plt>:
  401080:	ff 25 ba 2f 00 00    	jmp    QWORD PTR [rip+0x2fba]        # 404040 <gets@GLIBC_2.2.5>
  401086:	68 05 00 00 00       	push   0x5
  40108b:	e9 90 ff ff ff       	jmp    401020 <.plt>

0000000000401090 <atoi@plt>:
  401090:	ff 25 b2 2f 00 00    	jmp    QWORD PTR [rip+0x2fb2]        # 404048 <atoi@GLIBC_2.2.5>
  401096:	68 06 00 00 00       	push   0x6
  40109b:	e9 80 ff ff ff       	jmp    401020 <.plt>

Desensamblado de la secci贸n .text:

00000000004010a0 <_start>:
  4010a0:	31 ed                	xor    ebp,ebp
  4010a2:	49 89 d1             	mov    r9,rdx
  4010a5:	5e                   	pop    rsi
  4010a6:	48 89 e2             	mov    rdx,rsp
  4010a9:	48 83 e4 f0          	and    rsp,0xfffffffffffffff0
  4010ad:	50                   	push   rax
  4010ae:	54                   	push   rsp
  4010af:	49 c7 c0 90 13 40 00 	mov    r8,0x401390
  4010b6:	48 c7 c1 30 13 40 00 	mov    rcx,0x401330
  4010bd:	48 c7 c7 ce 12 40 00 	mov    rdi,0x4012ce
  4010c4:	ff 15 26 2f 00 00    	call   QWORD PTR [rip+0x2f26]        # 403ff0 <__libc_start_main@GLIBC_2.2.5>
  4010ca:	f4                   	hlt    
  4010cb:	0f 1f 44 00 00       	nop    DWORD PTR [rax+rax*1+0x0]

00000000004010d0 <_dl_relocate_static_pie>:
  4010d0:	c3                   	ret    
  4010d1:	66 2e 0f 1f 84 00 00 	nop    WORD PTR cs:[rax+rax*1+0x0]
  4010d8:	00 00 00 
  4010db:	0f 1f 44 00 00       	nop    DWORD PTR [rax+rax*1+0x0]

00000000004010e0 <deregister_tm_clones>:
  4010e0:	b8 60 40 40 00       	mov    eax,0x404060
  4010e5:	48 3d 60 40 40 00    	cmp    rax,0x404060
  4010eb:	74 13                	je     401100 <deregister_tm_clones+0x20>
  4010ed:	b8 00 00 00 00       	mov    eax,0x0
  4010f2:	48 85 c0             	test   rax,rax
  4010f5:	74 09                	je     401100 <deregister_tm_clones+0x20>
  4010f7:	bf 60 40 40 00       	mov    edi,0x404060
  4010fc:	ff e0                	jmp    rax
  4010fe:	66 90                	xchg   ax,ax
  401100:	c3                   	ret    
  401101:	66 66 2e 0f 1f 84 00 	data16 nop WORD PTR cs:[rax+rax*1+0x0]
  401108:	00 00 00 00 
  40110c:	0f 1f 40 00          	nop    DWORD PTR [rax+0x0]

0000000000401110 <register_tm_clones>:
  401110:	be 60 40 40 00       	mov    esi,0x404060
  401115:	48 81 ee 60 40 40 00 	sub    rsi,0x404060
  40111c:	48 89 f0             	mov    rax,rsi
  40111f:	48 c1 ee 3f          	shr    rsi,0x3f
  401123:	48 c1 f8 03          	sar    rax,0x3
  401127:	48 01 c6             	add    rsi,rax
  40112a:	48 d1 fe             	sar    rsi,1
  40112d:	74 11                	je     401140 <register_tm_clones+0x30>
  40112f:	b8 00 00 00 00       	mov    eax,0x0
  401134:	48 85 c0             	test   rax,rax
  401137:	74 07                	je     401140 <register_tm_clones+0x30>
  401139:	bf 60 40 40 00       	mov    edi,0x404060
  40113e:	ff e0                	jmp    rax
  401140:	c3                   	ret    
  401141:	66 66 2e 0f 1f 84 00 	data16 nop WORD PTR cs:[rax+rax*1+0x0]
  401148:	00 00 00 00 
  40114c:	0f 1f 40 00          	nop    DWORD PTR [rax+0x0]

0000000000401150 <__do_global_dtors_aux>:
  401150:	80 3d 11 2f 00 00 00 	cmp    BYTE PTR [rip+0x2f11],0x0        # 404068 <completed.0>
  401157:	75 17                	jne    401170 <__do_global_dtors_aux+0x20>
  401159:	55                   	push   rbp
  40115a:	48 89 e5             	mov    rbp,rsp
  40115d:	e8 7e ff ff ff       	call   4010e0 <deregister_tm_clones>
  401162:	c6 05 ff 2e 00 00 01 	mov    BYTE PTR [rip+0x2eff],0x1        # 404068 <completed.0>
  401169:	5d                   	pop    rbp
  40116a:	c3                   	ret    
  40116b:	0f 1f 44 00 00       	nop    DWORD PTR [rax+rax*1+0x0]
  401170:	c3                   	ret    
  401171:	66 66 2e 0f 1f 84 00 	data16 nop WORD PTR cs:[rax+rax*1+0x0]
  401178:	00 00 00 00 
  40117c:	0f 1f 40 00          	nop    DWORD PTR [rax+0x0]

0000000000401180 <frame_dummy>:
  401180:	eb 8e                	jmp    401110 <register_tm_clones>

0000000000401182 <ateak_puertas>:
  401182:	55                   	push   rbp
  401183:	48 89 e5             	mov    rbp,rsp
  401186:	48 83 ec 10          	sub    rsp,0x10
  40118a:	48 8d 3d 77 0e 00 00 	lea    rdi,[rip+0xe77]        # 402008 <_IO_stdin_used+0x8>
  401191:	e8 aa fe ff ff       	call   401040 <puts@plt>
  401196:	c7 45 fc 00 00 00 00 	mov    DWORD PTR [rbp-0x4],0x0
  40119d:	eb 4d                	jmp    4011ec <ateak_puertas+0x6a>
  40119f:	c7 45 f8 01 00 00 00 	mov    DWORD PTR [rbp-0x8],0x1
  4011a6:	eb 30                	jmp    4011d8 <ateak_puertas+0x56>
  4011a8:	8b 55 fc             	mov    edx,DWORD PTR [rbp-0x4]
  4011ab:	89 d0                	mov    eax,edx
  4011ad:	c1 e0 02             	shl    eax,0x2
  4011b0:	01 d0                	add    eax,edx
  4011b2:	01 c0                	add    eax,eax
  4011b4:	89 c2                	mov    edx,eax
  4011b6:	8b 45 f8             	mov    eax,DWORD PTR [rbp-0x8]
  4011b9:	01 d0                	add    eax,edx
  4011bb:	89 45 f4             	mov    DWORD PTR [rbp-0xc],eax
  4011be:	8b 45 f4             	mov    eax,DWORD PTR [rbp-0xc]
  4011c1:	89 c6                	mov    esi,eax
  4011c3:	48 8d 3d 67 0e 00 00 	lea    rdi,[rip+0xe67]        # 402031 <_IO_stdin_used+0x31>
  4011ca:	b8 00 00 00 00       	mov    eax,0x0
  4011cf:	e8 7c fe ff ff       	call   401050 <printf@plt>
  4011d4:	83 45 f8 01          	add    DWORD PTR [rbp-0x8],0x1
  4011d8:	83 7d f8 0a          	cmp    DWORD PTR [rbp-0x8],0xa
  4011dc:	7e ca                	jle    4011a8 <ateak_puertas+0x26>
  4011de:	bf 0a 00 00 00       	mov    edi,0xa
  4011e3:	e8 48 fe ff ff       	call   401030 <putchar@plt>
  4011e8:	83 45 fc 01          	add    DWORD PTR [rbp-0x4],0x1
  4011ec:	83 7d fc 09          	cmp    DWORD PTR [rbp-0x4],0x9
  4011f0:	7e ad                	jle    40119f <ateak_puertas+0x1d>
  4011f2:	bf 0a 00 00 00       	mov    edi,0xa
  4011f7:	e8 34 fe ff ff       	call   401030 <putchar@plt>
  4011fc:	b8 00 00 00 00       	mov    eax,0x0
  401201:	c9                   	leave  
  401202:	c3                   	ret    

0000000000401203 <input1>:
  401203:	55                   	push   rbp
  401204:	48 89 e5             	mov    rbp,rsp
  401207:	48 83 ec 10          	sub    rsp,0x10
  40120b:	48 8d 3d 25 0e 00 00 	lea    rdi,[rip+0xe25]        # 402037 <_IO_stdin_used+0x37>
  401212:	b8 00 00 00 00       	mov    eax,0x0
  401217:	e8 34 fe ff ff       	call   401050 <printf@plt>
  40121c:	48 8b 15 3d 2e 00 00 	mov    rdx,QWORD PTR [rip+0x2e3d]        # 404060 <stdin@@GLIBC_2.2.5>
  401223:	48 8d 45 f2          	lea    rax,[rbp-0xe]
  401227:	be 0a 00 00 00       	mov    esi,0xa
  40122c:	48 89 c7             	mov    rdi,rax
  40122f:	e8 3c fe ff ff       	call   401070 <fgets@plt>
  401234:	bf 0a 00 00 00       	mov    edi,0xa
  401239:	e8 f2 fd ff ff       	call   401030 <putchar@plt>
  40123e:	48 8d 45 f2          	lea    rax,[rbp-0xe]
  401242:	48 89 c7             	mov    rdi,rax
  401245:	e8 46 fe ff ff       	call   401090 <atoi@plt>
  40124a:	89 45 fc             	mov    DWORD PTR [rbp-0x4],eax
  40124d:	8b 45 fc             	mov    eax,DWORD PTR [rbp-0x4]
  401250:	c9                   	leave  
  401251:	c3                   	ret    

0000000000401252 <input2>:
  401252:	55                   	push   rbp
  401253:	48 89 e5             	mov    rbp,rsp
  401256:	48 83 ec 10          	sub    rsp,0x10
  40125a:	48 8d 3d df 0d 00 00 	lea    rdi,[rip+0xddf]        # 402040 <_IO_stdin_used+0x40>
  401261:	e8 da fd ff ff       	call   401040 <puts@plt>
  401266:	48 8d 3d 0b 0e 00 00 	lea    rdi,[rip+0xe0b]        # 402078 <_IO_stdin_used+0x78>
  40126d:	e8 ce fd ff ff       	call   401040 <puts@plt>
  401272:	48 8d 3d 3d 0e 00 00 	lea    rdi,[rip+0xe3d]        # 4020b6 <_IO_stdin_used+0xb6>
  401279:	e8 c2 fd ff ff       	call   401040 <puts@plt>
  40127e:	48 8d 3d 4d 0e 00 00 	lea    rdi,[rip+0xe4d]        # 4020d2 <_IO_stdin_used+0xd2>
  401285:	e8 b6 fd ff ff       	call   401040 <puts@plt>
  40128a:	48 8d 3d a6 0d 00 00 	lea    rdi,[rip+0xda6]        # 402037 <_IO_stdin_used+0x37>
  401291:	b8 00 00 00 00       	mov    eax,0x0
  401296:	e8 b5 fd ff ff       	call   401050 <printf@plt>
  40129b:	48 8d 45 f6          	lea    rax,[rbp-0xa]
  40129f:	48 89 c7             	mov    rdi,rax
  4012a2:	b8 00 00 00 00       	mov    eax,0x0
  4012a7:	e8 d4 fd ff ff       	call   401080 <gets@plt>
  4012ac:	90                   	nop
  4012ad:	c9                   	leave  
  4012ae:	c3                   	ret    

00000000004012af <ihesbide_viaDeEscape>:
  4012af:	55                   	push   rbp
  4012b0:	48 89 e5             	mov    rbp,rsp
  4012b3:	48 8d 3d 36 0e 00 00 	lea    rdi,[rip+0xe36]        # 4020f0 <_IO_stdin_used+0xf0>
  4012ba:	e8 81 fd ff ff       	call   401040 <puts@plt>
  4012bf:	48 8d 3d 62 0e 00 00 	lea    rdi,[rip+0xe62]        # 402128 <_IO_stdin_used+0x128>
  4012c6:	e8 75 fd ff ff       	call   401040 <puts@plt>
  4012cb:	90                   	nop
  4012cc:	5d                   	pop    rbp
  4012cd:	c3                   	ret    

00000000004012ce <main>:
  4012ce:	55                   	push   rbp
  4012cf:	48 89 e5             	mov    rbp,rsp
  4012d2:	48 83 ec 10          	sub    rsp,0x10
  4012d6:	bf b4 00 00 00       	mov    edi,0xb4
  4012db:	e8 80 fd ff ff       	call   401060 <alarm@plt>
  4012e0:	48 8d 3d 79 0e 00 00 	lea    rdi,[rip+0xe79]        # 402160 <_IO_stdin_used+0x160>
  4012e7:	e8 54 fd ff ff       	call   401040 <puts@plt>
  4012ec:	b8 00 00 00 00       	mov    eax,0x0
  4012f1:	e8 8c fe ff ff       	call   401182 <ateak_puertas>
  4012f6:	b8 00 00 00 00       	mov    eax,0x0
  4012fb:	e8 03 ff ff ff       	call   401203 <input1>
  401300:	89 45 fc             	mov    DWORD PTR [rbp-0x4],eax
  401303:	83 7d fc 35          	cmp    DWORD PTR [rbp-0x4],0x35
  401307:	75 0c                	jne    401315 <main+0x47>
  401309:	b8 00 00 00 00       	mov    eax,0x0
  40130e:	e8 3f ff ff ff       	call   401252 <input2>
  401313:	eb 0c                	jmp    401321 <main+0x53>
  401315:	48 8d 3d 7c 0e 00 00 	lea    rdi,[rip+0xe7c]        # 402198 <_IO_stdin_used+0x198>
  40131c:	e8 1f fd ff ff       	call   401040 <puts@plt>
  401321:	b8 00 00 00 00       	mov    eax,0x0
  401326:	c9                   	leave  
  401327:	c3                   	ret    
  401328:	0f 1f 84 00 00 00 00 	nop    DWORD PTR [rax+rax*1+0x0]
  40132f:	00 

0000000000401330 <__libc_csu_init>:
  401330:	41 57                	push   r15
  401332:	4c 8d 3d d7 2a 00 00 	lea    r15,[rip+0x2ad7]        # 403e10 <__frame_dummy_init_array_entry>
  401339:	41 56                	push   r14
  40133b:	49 89 d6             	mov    r14,rdx
  40133e:	41 55                	push   r13
  401340:	49 89 f5             	mov    r13,rsi
  401343:	41 54                	push   r12
  401345:	41 89 fc             	mov    r12d,edi
  401348:	55                   	push   rbp
  401349:	48 8d 2d c8 2a 00 00 	lea    rbp,[rip+0x2ac8]        # 403e18 <__do_global_dtors_aux_fini_array_entry>
  401350:	53                   	push   rbx
  401351:	4c 29 fd             	sub    rbp,r15
  401354:	48 83 ec 08          	sub    rsp,0x8
  401358:	e8 a3 fc ff ff       	call   401000 <_init>
  40135d:	48 c1 fd 03          	sar    rbp,0x3
  401361:	74 1b                	je     40137e <__libc_csu_init+0x4e>
  401363:	31 db                	xor    ebx,ebx
  401365:	0f 1f 00             	nop    DWORD PTR [rax]
  401368:	4c 89 f2             	mov    rdx,r14
  40136b:	4c 89 ee             	mov    rsi,r13
  40136e:	44 89 e7             	mov    edi,r12d
  401371:	41 ff 14 df          	call   QWORD PTR [r15+rbx*8]
  401375:	48 83 c3 01          	add    rbx,0x1
  401379:	48 39 dd             	cmp    rbp,rbx
  40137c:	75 ea                	jne    401368 <__libc_csu_init+0x38>
  40137e:	48 83 c4 08          	add    rsp,0x8
  401382:	5b                   	pop    rbx
  401383:	5d                   	pop    rbp
  401384:	41 5c                	pop    r12
  401386:	41 5d                	pop    r13
  401388:	41 5e                	pop    r14
  40138a:	41 5f                	pop    r15
  40138c:	c3                   	ret    
  40138d:	0f 1f 00             	nop    DWORD PTR [rax]

0000000000401390 <__libc_csu_fini>:
  401390:	c3                   	ret    

Desensamblado de la secci贸n .fini:

0000000000401394 <_fini>:
  401394:	48 83 ec 08          	sub    rsp,0x8
  401398:	48 83 c4 08          	add    rsp,0x8
  40139c:	c3                   	ret    
